; Function Attrs: mustprogress uwtable
define dso_local void @_ZN3net24QuicCompressedCertsCache11CachedCertsC2ERKNS0_17UncompressedCertsERKNSt7__cxx1112basic_stringIcSt11char_traitsIcESaIcEEE(ptr noundef nonnull align 8 dereferenceable(104) %this, ptr nocapture noundef nonnull readonly align 8 dereferenceable(24) %uncompressed_certs, ptr noundef nonnull align 8 dereferenceable(32) %compressed_cert) unnamed_addr #4 align 2 personality ptr @__gxx_personality_v0 {
entry:
  %0 = load ptr, ptr %uncompressed_certs, align 8
  store ptr %0, ptr %this, align 8
  %tobool.not.i = icmp eq ptr %0, null
  br i1 %tobool.not.i, label %_ZN13scoped_refptrIN3net11ProofSource5ChainEEC2ERKS3_.exit, label %if.then.i

if.then.i:                                        ; preds = %entry
  %add.ptr.i.i = getelementptr inbounds i8, ptr %0, i64 8
  %1 = load i32, ptr %add.ptr.i.i, align 4
  %inc.i.i.i.i = add nsw i32 %1, 1
  store i32 %inc.i.i.i.i, ptr %add.ptr.i.i, align 4
  br label %_ZN13scoped_refptrIN3net11ProofSource5ChainEEC2ERKS3_.exit

_ZN13scoped_refptrIN3net11ProofSource5ChainEEC2ERKS3_.exit: ; preds = %entry, %if.then.i
  %client_common_set_hashes_ = getelementptr inbounds i8, ptr %this, i64 8
  %client_common_set_hashes = getelementptr inbounds i8, ptr %uncompressed_certs, i64 8
  %2 = load ptr, ptr %client_common_set_hashes, align 8
  invoke void @_ZNSt7__cxx1112basic_stringIcSt11char_traitsIcESaIcEEC1ERKS4_(ptr noundef nonnull align 8 dereferenceable(32) %client_common_set_hashes_, ptr noundef nonnull align 8 dereferenceable(32) %2)
          to label %invoke.cont unwind label %lpad

invoke.cont:                                      ; preds = %_ZN13scoped_refptrIN3net11ProofSource5ChainEEC2ERKS3_.exit
  %client_cached_cert_hashes_ = getelementptr inbounds i8, ptr %this, i64 40
  %client_cached_cert_hashes = getelementptr inbounds i8, ptr %uncompressed_certs, i64 16
  %3 = load ptr, ptr %client_cached_cert_hashes, align 8
  invoke void @_ZNSt7__cxx1112basic_stringIcSt11char_traitsIcESaIcEEC1ERKS4_(ptr noundef nonnull align 8 dereferenceable(32) %client_cached_cert_hashes_, ptr noundef nonnull align 8 dereferenceable(32) %3)
          to label %invoke.cont3 unwind label %lpad2

invoke.cont3:                                     ; preds = %invoke.cont
  %compressed_cert_ = getelementptr inbounds i8, ptr %this, i64 72
  invoke void @_ZNSt7__cxx1112basic_stringIcSt11char_traitsIcESaIcEEC1ERKS4_(ptr noundef nonnull align 8 dereferenceable(32) %compressed_cert_, ptr noundef nonnull align 8 dereferenceable(32) %compressed_cert)
          to label %invoke.cont5 unwind label %lpad4

invoke.cont5:                                     ; preds = %invoke.cont3
  ret void

lpad:                                             ; preds = %_ZN13scoped_refptrIN3net11ProofSource5ChainEEC2ERKS3_.exit
  %4 = landingpad { ptr, i32 }
          cleanup
  br label %ehcleanup6

lpad2:                                            ; preds = %invoke.cont
  %5 = landingpad { ptr, i32 }
          cleanup
  br label %ehcleanup

lpad4:                                            ; preds = %invoke.cont3
  %6 = landingpad { ptr, i32 }
          cleanup
  tail call void @_ZNSt7__cxx1112basic_stringIcSt11char_traitsIcESaIcEED1Ev(ptr noundef nonnull align 8 dereferenceable(32) %client_cached_cert_hashes_) #13
  br label %ehcleanup

ehcleanup:                                        ; preds = %lpad4, %lpad2
  %.pn = phi { ptr, i32 } [ %6, %lpad4 ], [ %5, %lpad2 ]
  tail call void @_ZNSt7__cxx1112basic_stringIcSt11char_traitsIcESaIcEED1Ev(ptr noundef nonnull align 8 dereferenceable(32) %client_common_set_hashes_) #13
  br label %ehcleanup6

ehcleanup6:                                       ; preds = %ehcleanup, %lpad
  %.pn.pn = phi { ptr, i32 } [ %.pn, %ehcleanup ], [ %4, %lpad ]
  %7 = load ptr, ptr %this, align 8
  %tobool.not.i5 = icmp eq ptr %7, null
  br i1 %tobool.not.i5, label %_ZN13scoped_refptrIN3net11ProofSource5ChainEED2Ev.exit, label %if.then.i6

if.then.i6:                                       ; preds = %ehcleanup6
  %add.ptr.i.i7 = getelementptr inbounds i8, ptr %7, i64 8
  %8 = load i32, ptr %add.ptr.i.i7, align 4
  %dec.i.i.i.i = add nsw i32 %8, -1
  store i32 %dec.i.i.i.i, ptr %add.ptr.i.i7, align 4
  %cmp.i.i.i.i = icmp eq i32 %dec.i.i.i.i, 0
  br i1 %cmp.i.i.i.i, label %delete.notnull.i.i.i, label %_ZN13scoped_refptrIN3net11ProofSource5ChainEED2Ev.exit

delete.notnull.i.i.i:                             ; preds = %if.then.i6
  %vtable.i.i.i = load ptr, ptr %7, align 8
  %vfn.i.i.i = getelementptr inbounds i8, ptr %vtable.i.i.i, i64 8
  %9 = load ptr, ptr %vfn.i.i.i, align 8
  tail call void %9(ptr noundef nonnull align 8 dereferenceable(40) %7) #13
  br label %_ZN13scoped_refptrIN3net11ProofSource5ChainEED2Ev.exit

_ZN13scoped_refptrIN3net11ProofSource5ChainEED2Ev.exit: ; preds = %ehcleanup6, %if.then.i6, %delete.notnull.i.i.i
  resume { ptr, i32 } %.pn.pn
}